target datalayout = "e-m:e-p270:32:32-p271:32:32-p272:64:64-i64:64-i128:128-f80:128-n8:16:32:64-S128"
target triple = "x86_64-pc-linux-gnu"

%class.QString = type { ptr }

@.str.31 = private unnamed_addr constant [17 x i8] c"Laplacian Smooth\00", align 1
@.str.32 = private unnamed_addr constant [20 x i8] c"HC Laplacian Smooth\00", align 1
@.str.33 = private unnamed_addr constant [32 x i8] c"ScaleDependent Laplacian Smooth\00", align 1
@.str.34 = private unnamed_addr constant [15 x i8] c"TwoStep Smooth\00", align 1
@.str.35 = private unnamed_addr constant [14 x i8] c"Taubin Smooth\00", align 1
@.str.36 = private unnamed_addr constant [13 x i8] c"Depth Smooth\00", align 1
@.str.37 = private unnamed_addr constant [34 x i8] c"Directional Geometry Preservation\00", align 1
@.str.38 = private unnamed_addr constant [28 x i8] c"Cut mesh along crease edges\00", align 1
@.str.39 = private unnamed_addr constant [23 x i8] c"Normalize Face Normals\00", align 1
@.str.40 = private unnamed_addr constant [25 x i8] c"Normalize Vertex Normals\00", align 1
@.str.41 = private unnamed_addr constant [20 x i8] c"Smooth Face Normals\00", align 1
@.str.42 = private unnamed_addr constant [22 x i8] c"Smooth Vertex Quality\00", align 1
@.str.43 = private unnamed_addr constant [21 x i8] c"UnSharp Mask Normals\00", align 1
@.str.44 = private unnamed_addr constant [22 x i8] c"UnSharp Mask Geometry\00", align 1
@.str.45 = private unnamed_addr constant [21 x i8] c"UnSharp Mask Quality\00", align 1
@.str.46 = private unnamed_addr constant [19 x i8] c"UnSharp Mask Color\00", align 1
@.str.47 = private unnamed_addr constant [26 x i8] c"Re-Compute Vertex Normals\00", align 1
@.str.48 = private unnamed_addr constant [24 x i8] c"Re-Compute Face Normals\00", align 1
@.str.49 = private unnamed_addr constant [36 x i8] c"Re-Compute Per-Polygon Face Normals\00", align 1
@.str.50 = private unnamed_addr constant [23 x i8] c"Vertex Linear Morphing\00", align 1
@.str.51 = private unnamed_addr constant [31 x i8] c"Generate Scalar Harmonic Field\00", align 1
@.str.52 = private unnamed_addr constant [37 x i8] c"Error on FilterUnsharp::filterName()\00", align 1

; Function Attrs: mustprogress uwtable
define linkonce_odr void @_ZN7QStringC2EPKc(ptr noundef nonnull align 8 dereferenceable(8) %0, ptr noundef %1) unnamed_addr #5 comdat align 2 {
  %3 = alloca ptr, align 8
  %4 = alloca ptr, align 8
  store ptr %0, ptr %3, align 8
  store ptr %1, ptr %4, align 8
  %5 = load ptr, ptr %3, align 8
  %6 = getelementptr inbounds %class.QString, ptr %5, i32 0, i32 0
  %7 = load ptr, ptr %4, align 8
  %8 = load ptr, ptr %4, align 8
  %9 = icmp ne ptr %8, null
  br i1 %9, label %10, label %14

10:                                               ; preds = %2
  %11 = load ptr, ptr %4, align 8
  %12 = call i64 @strlen(ptr noundef %11) #26
  %13 = trunc i64 %12 to i32
  br label %15

14:                                               ; preds = %2
  br label %15

15:                                               ; preds = %14, %10
  %16 = phi i32 [ %13, %10 ], [ -1, %14 ]
  %17 = call noundef ptr @_ZN7QString16fromAscii_helperEPKci(ptr noundef %7, i32 noundef %16)
  store ptr %17, ptr %6, align 8
  ret void
}

; Function Attrs: mustprogress uwtable
define void @_ZNK13FilterUnsharp10filterNameEi(ptr dead_on_unwind noalias writable sret(%class.QString) align 8 %0, ptr noundef nonnull align 8 dereferenceable(80) %1, i32 noundef %2) unnamed_addr #5 align 2 {
  %4 = alloca ptr, align 8
  %5 = alloca ptr, align 8
  %6 = alloca i32, align 4
  store ptr %0, ptr %4, align 8
  store ptr %1, ptr %5, align 8
  store i32 %2, ptr %6, align 4
  %7 = load i32, ptr %6, align 4
  switch i32 %7, label %29 [
    i32 1, label %8
    i32 4, label %9
    i32 5, label %10
    i32 6, label %11
    i32 7, label %12
    i32 3, label %13
    i32 2, label %14
    i32 0, label %15
    i32 9, label %16
    i32 10, label %17
    i32 8, label %18
    i32 11, label %19
    i32 12, label %20
    i32 13, label %21
    i32 14, label %22
    i32 15, label %23
    i32 17, label %24
    i32 18, label %25
    i32 19, label %26
    i32 20, label %27
    i32 21, label %28
  ]

8:                                                ; preds = %3
  call void @_ZN7QStringC2EPKc(ptr noundef nonnull align 8 dereferenceable(8) %0, ptr noundef @.str.31)
  br label %31

9:                                                ; preds = %3
  call void @_ZN7QStringC2EPKc(ptr noundef nonnull align 8 dereferenceable(8) %0, ptr noundef @.str.32)
  br label %31

10:                                               ; preds = %3
  call void @_ZN7QStringC2EPKc(ptr noundef nonnull align 8 dereferenceable(8) %0, ptr noundef @.str.33)
  br label %31

11:                                               ; preds = %3
  call void @_ZN7QStringC2EPKc(ptr noundef nonnull align 8 dereferenceable(8) %0, ptr noundef @.str.34)
  br label %31

12:                                               ; preds = %3
  call void @_ZN7QStringC2EPKc(ptr noundef nonnull align 8 dereferenceable(8) %0, ptr noundef @.str.35)
  br label %31

13:                                               ; preds = %3
  call void @_ZN7QStringC2EPKc(ptr noundef nonnull align 8 dereferenceable(8) %0, ptr noundef @.str.36)
  br label %31

14:                                               ; preds = %3
  call void @_ZN7QStringC2EPKc(ptr noundef nonnull align 8 dereferenceable(8) %0, ptr noundef @.str.37)
  br label %31

15:                                               ; preds = %3
  call void @_ZN7QStringC2EPKc(ptr noundef nonnull align 8 dereferenceable(8) %0, ptr noundef @.str.38)
  br label %31

16:                                               ; preds = %3
  call void @_ZN7QStringC2EPKc(ptr noundef nonnull align 8 dereferenceable(8) %0, ptr noundef @.str.39)
  br label %31

17:                                               ; preds = %3
  call void @_ZN7QStringC2EPKc(ptr noundef nonnull align 8 dereferenceable(8) %0, ptr noundef @.str.40)
  br label %31

18:                                               ; preds = %3
  call void @_ZN7QStringC2EPKc(ptr noundef nonnull align 8 dereferenceable(8) %0, ptr noundef @.str.41)
  br label %31

19:                                               ; preds = %3
  call void @_ZN7QStringC2EPKc(ptr noundef nonnull align 8 dereferenceable(8) %0, ptr noundef @.str.42)
  br label %31

20:                                               ; preds = %3
  call void @_ZN7QStringC2EPKc(ptr noundef nonnull align 8 dereferenceable(8) %0, ptr noundef @.str.43)
  br label %31

21:                                               ; preds = %3
  call void @_ZN7QStringC2EPKc(ptr noundef nonnull align 8 dereferenceable(8) %0, ptr noundef @.str.44)
  br label %31

22:                                               ; preds = %3
  call void @_ZN7QStringC2EPKc(ptr noundef nonnull align 8 dereferenceable(8) %0, ptr noundef @.str.45)
  br label %31

23:                                               ; preds = %3
  call void @_ZN7QStringC2EPKc(ptr noundef nonnull align 8 dereferenceable(8) %0, ptr noundef @.str.46)
  br label %31

24:                                               ; preds = %3
  call void @_ZN7QStringC2EPKc(ptr noundef nonnull align 8 dereferenceable(8) %0, ptr noundef @.str.47)
  br label %31

25:                                               ; preds = %3
  call void @_ZN7QStringC2EPKc(ptr noundef nonnull align 8 dereferenceable(8) %0, ptr noundef @.str.48)
  br label %31

26:                                               ; preds = %3
  call void @_ZN7QStringC2EPKc(ptr noundef nonnull align 8 dereferenceable(8) %0, ptr noundef @.str.49)
  br label %31

27:                                               ; preds = %3
  call void @_ZN7QStringC2EPKc(ptr noundef nonnull align 8 dereferenceable(8) %0, ptr noundef @.str.50)
  br label %31

28:                                               ; preds = %3
  call void @_ZN7QStringC2EPKc(ptr noundef nonnull align 8 dereferenceable(8) %0, ptr noundef @.str.51)
  br label %31

29:                                               ; preds = %3
  br label %30

30:                                               ; preds = %29
  call void @_ZN7QStringC2EPKc(ptr noundef nonnull align 8 dereferenceable(8) %0, ptr noundef @.str.52)
  br label %31

31:                                               ; preds = %30, %28, %27, %26, %25, %24, %23, %22, %21, %20, %19, %18, %17, %16, %15, %14, %13, %12, %11, %10, %9, %8
  ret void
}